target datalayout = "e-m:e-p270:32:32-p271:32:32-p272:64:64-i64:64-i128:128-f80:128-n8:16:32:64-S128"
target triple = "x86_64-unknown-linux-gnu"

%"class.Imath_3_2::Vec2" = type { i32, i32 }
%"class.Imf_3_2::Image" = type { ptr, %"class.Imath_3_2::Box", i32, i32, %"class.std::map", %"class.Imf_3_2::Array2D" }
%"class.Imath_3_2::Box" = type { %"class.Imath_3_2::Vec2", %"class.Imath_3_2::Vec2" }
%"class.std::map" = type { %"class.std::_Rb_tree" }
%"class.std::_Rb_tree" = type { %"struct.std::_Rb_tree<std::__cxx11::basic_string<char>, std::pair<const std::__cxx11::basic_string<char>, Imf_3_2::Image::ChannelInfo>, std::_Select1st<std::pair<const std::__cxx11::basic_string<char>, Imf_3_2::Image::ChannelInfo>>, std::less<std::__cxx11::basic_string<char>>>::_Rb_tree_impl" }
%"struct.std::_Rb_tree<std::__cxx11::basic_string<char>, std::pair<const std::__cxx11::basic_string<char>, Imf_3_2::Image::ChannelInfo>, std::_Select1st<std::pair<const std::__cxx11::basic_string<char>, Imf_3_2::Image::ChannelInfo>>, std::less<std::__cxx11::basic_string<char>>>::_Rb_tree_impl" = type { %"struct.std::_Rb_tree_key_compare", %"struct.std::_Rb_tree_header" }
%"struct.std::_Rb_tree_key_compare" = type { %"struct.std::less" }
%"struct.std::less" = type { i8 }
%"struct.std::_Rb_tree_header" = type { %"struct.std::_Rb_tree_node_base", i64 }
%"struct.std::_Rb_tree_node_base" = type { i32, ptr, ptr, ptr }
%"class.Imf_3_2::Array2D" = type { i64, i64, ptr }

; Function Attrs: mustprogress uwtable
define void @_ZN7Imf_3_25Image6resizeERKN9Imath_3_23BoxINS1_4Vec2IiEEEE(ptr noundef nonnull align 8 dereferenceable(104) %this, ptr noundef nonnull align 4 dereferenceable(16) %dataWindow) #4 align 2 {
entry:
  %this.addr = alloca ptr, align 8
  %dataWindow.addr = alloca ptr, align 8
  store ptr %this, ptr %this.addr, align 8
  store ptr %dataWindow, ptr %dataWindow.addr, align 8
  %this1 = load ptr, ptr %this.addr, align 8
  %0 = load ptr, ptr %dataWindow.addr, align 8
  %_levelMode = getelementptr inbounds %"class.Imf_3_2::Image", ptr %this1, i32 0, i32 2
  %1 = load i32, ptr %_levelMode, align 8
  %_levelRoundingMode = getelementptr inbounds %"class.Imf_3_2::Image", ptr %this1, i32 0, i32 3
  %2 = load i32, ptr %_levelRoundingMode, align 4
  %vtable = load ptr, ptr %this1, align 8
  %vfn = getelementptr inbounds ptr, ptr %vtable, i64 2
  %3 = load ptr, ptr %vfn, align 8
  call void %3(ptr noundef nonnull align 8 dereferenceable(104) %this1, ptr noundef nonnull align 4 dereferenceable(16) %0, i32 noundef %1, i32 noundef %2)
  ret void
}