; Function Attrs: mustprogress uwtable
define void @_ZN7Imf_3_25Image6resizeERKN9Imath_3_23BoxINS1_4Vec2IiEEEE(ptr noundef nonnull align 8 dereferenceable(104) %this, ptr noundef nonnull align 4 dereferenceable(16) %dataWindow) local_unnamed_addr #6 align 2 {
entry:
  %_levelMode = getelementptr inbounds i8, ptr %this, i64 24
  %0 = load i32, ptr %_levelMode, align 8
  %_levelRoundingMode = getelementptr inbounds i8, ptr %this, i64 28
  %1 = load i32, ptr %_levelRoundingMode, align 4
  %vtable = load ptr, ptr %this, align 8
  %vfn = getelementptr inbounds i8, ptr %vtable, i64 16
  %2 = load ptr, ptr %vfn, align 8
  tail call void %2(ptr noundef nonnull align 8 dereferenceable(104) %this, ptr noundef nonnull align 4 dereferenceable(16) %dataWindow, i32 noundef %0, i32 noundef %1)
  ret void
}